target datalayout = "e-m:e-p270:32:32-p271:32:32-p272:64:64-i64:64-i128:128-f80:128-n8:16:32:64-S128"
target triple = "x86_64-pc-linux-gnu"

%class.LIR_Opr = type { i64 }
%class.Instruction = type { ptr, i32, i32, i32, ptr, ptr, ptr, %class.LIR_Opr, i32, ptr, ptr, ptr, ptr }
%"class.RangeCheckEliminator::Bound" = type { i32, ptr, i32, ptr }
%class.AccessArray = type { %class.Instruction, ptr }
%class.AccessIndexed = type <{ %class.AccessArray, ptr, ptr, i8, i8, [6 x i8] }>

; Function Attrs: mustprogress nounwind uwtable
define linkonce_odr hidden void @_ZN13AccessIndexed12clear_lengthEv(ptr noundef nonnull align 8 dereferenceable(122) %0) #1 comdat align 2 {
  %2 = alloca ptr, align 8
  store ptr %0, ptr %2, align 8
  %3 = load ptr, ptr %2, align 8
  %4 = getelementptr inbounds %class.AccessIndexed, ptr %3, i32 0, i32 2
  store ptr null, ptr %4, align 8
  ret void
}

; Function Attrs: mustprogress nounwind uwtable
define linkonce_odr hidden void @_ZN11Instruction8set_flagENS_15InstructionFlagEb(ptr noundef nonnull align 8 dereferenceable(96) %0, i32 noundef %1, i1 noundef zeroext %2) #1 comdat align 2 {
  %4 = alloca ptr, align 8
  %5 = alloca i32, align 4
  %6 = alloca i8, align 1
  store ptr %0, ptr %4, align 8
  store i32 %1, ptr %5, align 4
  %7 = zext i1 %2 to i8
  store i8 %7, ptr %6, align 1
  %8 = load ptr, ptr %4, align 8
  %9 = load i8, ptr %6, align 1
  %10 = trunc i8 %9 to i1
  br i1 %10, label %11, label %17

11:                                               ; preds = %3
  %12 = getelementptr inbounds %class.Instruction, ptr %8, i32 0, i32 8
  %13 = load i32, ptr %12, align 8
  %14 = load i32, ptr %5, align 4
  %15 = shl i32 1, %14
  %16 = or i32 %13, %15
  br label %24

17:                                               ; preds = %3
  %18 = getelementptr inbounds %class.Instruction, ptr %8, i32 0, i32 8
  %19 = load i32, ptr %18, align 8
  %20 = load i32, ptr %5, align 4
  %21 = shl i32 1, %20
  %22 = xor i32 %21, -1
  %23 = and i32 %19, %22
  br label %24

24:                                               ; preds = %17, %11
  %25 = phi i32 [ %16, %11 ], [ %23, %17 ]
  %26 = getelementptr inbounds %class.Instruction, ptr %8, i32 0, i32 8
  store i32 %25, ptr %26, align 8
  ret void
}

; Function Attrs: mustprogress nounwind uwtable
define hidden noundef ptr @_ZN20RangeCheckEliminator5Bound11upper_instrEv(ptr noundef nonnull align 8 dereferenceable(32) %0) #1 align 2 {
  %2 = alloca ptr, align 8
  store ptr %0, ptr %2, align 8
  %3 = load ptr, ptr %2, align 8
  %4 = getelementptr inbounds %"class.RangeCheckEliminator::Bound", ptr %3, i32 0, i32 1
  %5 = load ptr, ptr %4, align 8
  ret ptr %5
}

; Function Attrs: mustprogress nounwind uwtable
define hidden noundef i32 @_ZN20RangeCheckEliminator5Bound5upperEv(ptr noundef nonnull align 8 dereferenceable(32) %0) #1 align 2 {
  %2 = alloca ptr, align 8
  store ptr %0, ptr %2, align 8
  %3 = load ptr, ptr %2, align 8
  %4 = getelementptr inbounds %"class.RangeCheckEliminator::Bound", ptr %3, i32 0, i32 0
  %5 = load i32, ptr %4, align 8
  ret i32 %5
}

; Function Attrs: mustprogress nounwind uwtable
define hidden void @_ZN20RangeCheckEliminator18remove_range_checkEP13AccessIndexed(ptr noundef nonnull align 8 dereferenceable(88) %0, ptr noundef %1) #1 align 2 {
  %3 = alloca ptr, align 8
  %4 = alloca ptr, align 8
  store ptr %0, ptr %3, align 8
  store ptr %1, ptr %4, align 8
  %5 = load ptr, ptr %4, align 8
  call void @_ZN11Instruction8set_flagENS_15InstructionFlagEb(ptr noundef nonnull align 8 dereferenceable(96) %5, i32 noundef 17, i1 noundef zeroext false)
  %6 = load ptr, ptr %4, align 8
  call void @_ZN13AccessIndexed12clear_lengthEv(ptr noundef nonnull align 8 dereferenceable(122) %6)
  ret void
}

; Function Attrs: mustprogress nounwind uwtable
define hidden noundef i32 @_ZN20RangeCheckEliminator5Bound5lowerEv(ptr noundef nonnull align 8 dereferenceable(32) %0) #1 align 2 {
  %2 = alloca ptr, align 8
  store ptr %0, ptr %2, align 8
  %3 = load ptr, ptr %2, align 8
  %4 = getelementptr inbounds %"class.RangeCheckEliminator::Bound", ptr %3, i32 0, i32 2
  %5 = load i32, ptr %4, align 8
  ret i32 %5
}

; Function Attrs: mustprogress nounwind uwtable
define hidden noundef ptr @_ZN20RangeCheckEliminator5Bound11lower_instrEv(ptr noundef nonnull align 8 dereferenceable(32) %0) #1 align 2 {
  %2 = alloca ptr, align 8
  store ptr %0, ptr %2, align 8
  %3 = load ptr, ptr %2, align 8
  %4 = getelementptr inbounds %"class.RangeCheckEliminator::Bound", ptr %3, i32 0, i32 3
  %5 = load ptr, ptr %4, align 8
  ret ptr %5
}

; Function Attrs: mustprogress nounwind uwtable
define hidden noundef zeroext i1 @_ZN20RangeCheckEliminator5Bound10is_smallerEPS0_(ptr noundef nonnull align 8 dereferenceable(32) %0, ptr noundef %1) #1 align 2 {
  %3 = alloca i1, align 1
  %4 = alloca ptr, align 8
  %5 = alloca ptr, align 8
  store ptr %0, ptr %4, align 8
  store ptr %1, ptr %5, align 8
  %6 = load ptr, ptr %4, align 8
  %7 = load ptr, ptr %5, align 8
  %8 = getelementptr inbounds %"class.RangeCheckEliminator::Bound", ptr %7, i32 0, i32 3
  %9 = load ptr, ptr %8, align 8
  %10 = getelementptr inbounds %"class.RangeCheckEliminator::Bound", ptr %6, i32 0, i32 1
  %11 = load ptr, ptr %10, align 8
  %12 = icmp ne ptr %9, %11
  br i1 %12, label %13, label %14

13:                                               ; preds = %2
  store i1 false, ptr %3, align 1
  br label %21

14:                                               ; preds = %2
  %15 = getelementptr inbounds %"class.RangeCheckEliminator::Bound", ptr %6, i32 0, i32 0
  %16 = load i32, ptr %15, align 8
  %17 = load ptr, ptr %5, align 8
  %18 = getelementptr inbounds %"class.RangeCheckEliminator::Bound", ptr %17, i32 0, i32 2
  %19 = load i32, ptr %18, align 8
  %20 = icmp slt i32 %16, %19
  store i1 %20, ptr %3, align 1
  br label %21

21:                                               ; preds = %14, %13
  %22 = load i1, ptr %3, align 1
  ret i1 %22
}

; Function Attrs: mustprogress nounwind uwtable
define hidden noundef zeroext i1 @_ZN20RangeCheckEliminator14in_array_boundEPNS_5BoundEP11Instruction(ptr noundef nonnull align 8 dereferenceable(88) %0, ptr noundef %1, ptr noundef %2) #1 align 2 {
  %4 = alloca i1, align 1
  %5 = alloca ptr, align 8
  %6 = alloca ptr, align 8
  %7 = alloca ptr, align 8
  %8 = alloca ptr, align 8
  store ptr %0, ptr %5, align 8
  store ptr %1, ptr %6, align 8
  store ptr %2, ptr %7, align 8
  %9 = load ptr, ptr %6, align 8
  %10 = icmp ne ptr %9, null
  br i1 %10, label %12, label %11

11:                                               ; preds = %3
  store i1 false, ptr %4, align 1
  br label %50

12:                                               ; preds = %3
  %13 = load ptr, ptr %6, align 8
  %14 = call noundef i32 @_ZN20RangeCheckEliminator5Bound5lowerEv(ptr noundef nonnull align 8 dereferenceable(32) %13)
  %15 = icmp sge i32 %14, 0
  br i1 %15, label %16, label %49

16:                                               ; preds = %12
  %17 = load ptr, ptr %6, align 8
  %18 = call noundef ptr @_ZN20RangeCheckEliminator5Bound11lower_instrEv(ptr noundef nonnull align 8 dereferenceable(32) %17)
  %19 = icmp eq ptr %18, null
  br i1 %19, label %20, label %49

20:                                               ; preds = %16
  %21 = load ptr, ptr %6, align 8
  %22 = call noundef i32 @_ZN20RangeCheckEliminator5Bound5upperEv(ptr noundef nonnull align 8 dereferenceable(32) %21)
  %23 = icmp slt i32 %22, 0
  br i1 %23, label %24, label %49

24:                                               ; preds = %20
  %25 = load ptr, ptr %6, align 8
  %26 = call noundef ptr @_ZN20RangeCheckEliminator5Bound11upper_instrEv(ptr noundef nonnull align 8 dereferenceable(32) %25)
  %27 = icmp ne ptr %26, null
  br i1 %27, label %28, label %49

28:                                               ; preds = %24
  %29 = load ptr, ptr %6, align 8
  %30 = call noundef ptr @_ZN20RangeCheckEliminator5Bound11upper_instrEv(ptr noundef nonnull align 8 dereferenceable(32) %29)
  %31 = load ptr, ptr %30, align 8
  %32 = getelementptr inbounds ptr, ptr %31, i64 9
  %33 = load ptr, ptr %32, align 8
  %34 = call noundef ptr %33(ptr noundef nonnull align 8 dereferenceable(96) %30)
  store ptr %34, ptr %8, align 8
  %35 = load ptr, ptr %6, align 8
  %36 = call noundef ptr @_ZN20RangeCheckEliminator5Bound11upper_instrEv(ptr noundef nonnull align 8 dereferenceable(32) %35)
  %37 = load ptr, ptr %7, align 8
  %38 = icmp eq ptr %36, %37
  br i1 %38, label %47, label %39

39:                                               ; preds = %28
  %40 = load ptr, ptr %8, align 8
  %41 = icmp ne ptr %40, null
  br i1 %41, label %42, label %48

42:                                               ; preds = %39
  %43 = load ptr, ptr %8, align 8
  %44 = call noundef ptr @_ZNK11AccessArray5arrayEv(ptr noundef nonnull align 8 dereferenceable(104) %43)
  %45 = load ptr, ptr %7, align 8
  %46 = icmp eq ptr %44, %45
  br i1 %46, label %47, label %48

47:                                               ; preds = %42, %28
  store i1 true, ptr %4, align 1
  br label %50

48:                                               ; preds = %42, %39
  br label %49

49:                                               ; preds = %48, %24, %20, %16, %12
  store i1 false, ptr %4, align 1
  br label %50

50:                                               ; preds = %49, %47, %11
  %51 = load i1, ptr %4, align 1
  ret i1 %51
}

; Function Attrs: mustprogress nounwind uwtable
define linkonce_odr hidden noundef ptr @_ZNK11AccessArray5arrayEv(ptr noundef nonnull align 8 dereferenceable(104) %0) #1 comdat align 2 {
  %2 = alloca ptr, align 8
  store ptr %0, ptr %2, align 8
  %3 = load ptr, ptr %2, align 8
  %4 = getelementptr inbounds %class.AccessArray, ptr %3, i32 0, i32 1
  %5 = load ptr, ptr %4, align 8
  ret ptr %5
}

; Function Attrs: mustprogress nounwind uwtable
define linkonce_odr hidden noundef ptr @_ZNK13AccessIndexed6lengthEv(ptr noundef nonnull align 8 dereferenceable(122) %0) #1 comdat align 2 {
  %2 = alloca ptr, align 8
  store ptr %0, ptr %2, align 8
  %3 = load ptr, ptr %2, align 8
  %4 = getelementptr inbounds %class.AccessIndexed, ptr %3, i32 0, i32 2
  %5 = load ptr, ptr %4, align 8
  ret ptr %5
}

; Function Attrs: mustprogress nounwind uwtable
define hidden noundef zeroext i1 @_ZN20RangeCheckEliminator5Bound9has_upperEv(ptr noundef nonnull align 8 dereferenceable(32) %0) #1 align 2 {
  %2 = alloca ptr, align 8
  store ptr %0, ptr %2, align 8
  %3 = load ptr, ptr %2, align 8
  %4 = getelementptr inbounds %"class.RangeCheckEliminator::Bound", ptr %3, i32 0, i32 1
  %5 = load ptr, ptr %4, align 8
  %6 = icmp ne ptr %5, null
  br i1 %6, label %11, label %7

7:                                                ; preds = %1
  %8 = getelementptr inbounds %"class.RangeCheckEliminator::Bound", ptr %3, i32 0, i32 0
  %9 = load i32, ptr %8, align 8
  %10 = icmp slt i32 %9, 2147483647
  br label %11

11:                                               ; preds = %7, %1
  %12 = phi i1 [ true, %1 ], [ %10, %7 ]
  ret i1 %12
}

; Function Attrs: mustprogress nounwind uwtable
define hidden noundef zeroext i1 @_ZN20RangeCheckEliminator5Bound9has_lowerEv(ptr noundef nonnull align 8 dereferenceable(32) %0) #1 align 2 {
  %2 = alloca ptr, align 8
  store ptr %0, ptr %2, align 8
  %3 = load ptr, ptr %2, align 8
  %4 = getelementptr inbounds %"class.RangeCheckEliminator::Bound", ptr %3, i32 0, i32 3
  %5 = load ptr, ptr %4, align 8
  %6 = icmp ne ptr %5, null
  br i1 %6, label %11, label %7

7:                                                ; preds = %1
  %8 = getelementptr inbounds %"class.RangeCheckEliminator::Bound", ptr %3, i32 0, i32 2
  %9 = load i32, ptr %8, align 8
  %10 = icmp sgt i32 %9, -2147483648
  br label %11

11:                                               ; preds = %7, %1
  %12 = phi i1 [ true, %1 ], [ %10, %7 ]
  ret i1 %12
}

; Function Attrs: mustprogress nounwind uwtable
define linkonce_odr hidden noundef ptr @_ZNK13AccessIndexed5indexEv(ptr noundef nonnull align 8 dereferenceable(122) %0) #1 comdat align 2 {
  %2 = alloca ptr, align 8
  store ptr %0, ptr %2, align 8
  %3 = load ptr, ptr %2, align 8
  %4 = getelementptr inbounds %class.AccessIndexed, ptr %3, i32 0, i32 1
  %5 = load ptr, ptr %4, align 8
  ret ptr %5
}

; Function Attrs: mustprogress nounwind uwtable
define linkonce_odr hidden noundef zeroext i1 @_ZNK11Instruction10check_flagENS_15InstructionFlagE(ptr noundef nonnull align 8 dereferenceable(96) %0, i32 noundef %1) #1 comdat align 2 {
  %3 = alloca ptr, align 8
  %4 = alloca i32, align 4
  store ptr %0, ptr %3, align 8
  store i32 %1, ptr %4, align 4
  %5 = load ptr, ptr %3, align 8
  %6 = getelementptr inbounds %class.Instruction, ptr %5, i32 0, i32 8
  %7 = load i32, ptr %6, align 8
  %8 = load i32, ptr %4, align 4
  %9 = shl i32 1, %8
  %10 = and i32 %7, %9
  %11 = icmp ne i32 %10, 0
  ret i1 %11
}

; Function Attrs: mustprogress nounwind uwtable
define hidden void @_ZN20RangeCheckEliminator22process_access_indexedEP10BlockBeginS1_P13AccessIndexed(ptr noundef nonnull align 8 dereferenceable(88) %0, ptr noundef %1, ptr noundef %2, ptr noundef %3) #1 align 2 {
  %5 = alloca ptr, align 8
  %6 = alloca ptr, align 8
  %7 = alloca ptr, align 8
  %8 = alloca ptr, align 8
  %9 = alloca ptr, align 8
  %10 = alloca ptr, align 8
  store ptr %0, ptr %5, align 8
  store ptr %1, ptr %6, align 8
  store ptr %2, ptr %7, align 8
  store ptr %3, ptr %8, align 8
  %11 = load ptr, ptr %5, align 8
  %12 = load ptr, ptr %8, align 8
  %13 = call noundef zeroext i1 @_ZNK11Instruction10check_flagENS_15InstructionFlagE(ptr noundef nonnull align 8 dereferenceable(96) %12, i32 noundef 17)
  br i1 %13, label %14, label %63

14:                                               ; preds = %4
  %15 = load ptr, ptr %8, align 8
  %16 = call noundef ptr @_ZNK13AccessIndexed5indexEv(ptr noundef nonnull align 8 dereferenceable(122) %15)
  %17 = call noundef ptr @_ZN20RangeCheckEliminator9get_boundEP11Instruction(ptr noundef nonnull align 8 dereferenceable(88) %11, ptr noundef %16)
  store ptr %17, ptr %9, align 8
  %18 = load ptr, ptr %9, align 8
  %19 = call noundef zeroext i1 @_ZN20RangeCheckEliminator5Bound9has_lowerEv(ptr noundef nonnull align 8 dereferenceable(32) %18)
  br i1 %19, label %20, label %23

20:                                               ; preds = %14
  %21 = load ptr, ptr %9, align 8
  %22 = call noundef zeroext i1 @_ZN20RangeCheckEliminator5Bound9has_upperEv(ptr noundef nonnull align 8 dereferenceable(32) %21)
  br i1 %22, label %24, label %23

23:                                               ; preds = %20, %14
  br label %63

24:                                               ; preds = %20
  %25 = load ptr, ptr %8, align 8
  %26 = call noundef ptr @_ZNK13AccessIndexed6lengthEv(ptr noundef nonnull align 8 dereferenceable(122) %25)
  %27 = icmp ne ptr %26, null
  br i1 %27, label %28, label %32

28:                                               ; preds = %24
  %29 = load ptr, ptr %8, align 8
  %30 = call noundef ptr @_ZNK13AccessIndexed6lengthEv(ptr noundef nonnull align 8 dereferenceable(122) %29)
  %31 = call noundef ptr @_ZN20RangeCheckEliminator9get_boundEP11Instruction(ptr noundef nonnull align 8 dereferenceable(88) %11, ptr noundef %30)
  store ptr %31, ptr %10, align 8
  br label %36

32:                                               ; preds = %24
  %33 = load ptr, ptr %8, align 8
  %34 = call noundef ptr @_ZNK11AccessArray5arrayEv(ptr noundef nonnull align 8 dereferenceable(104) %33)
  %35 = call noundef ptr @_ZN20RangeCheckEliminator9get_boundEP11Instruction(ptr noundef nonnull align 8 dereferenceable(88) %11, ptr noundef %34)
  store ptr %35, ptr %10, align 8
  br label %36

36:                                               ; preds = %32, %28
  %37 = load ptr, ptr %9, align 8
  %38 = load ptr, ptr %8, align 8
  %39 = call noundef ptr @_ZNK11AccessArray5arrayEv(ptr noundef nonnull align 8 dereferenceable(104) %38)
  %40 = call noundef zeroext i1 @_ZN20RangeCheckEliminator14in_array_boundEPNS_5BoundEP11Instruction(ptr noundef nonnull align 8 dereferenceable(88) %11, ptr noundef %37, ptr noundef %39)
  br i1 %40, label %59, label %41

41:                                               ; preds = %36
  %42 = load ptr, ptr %9, align 8
  %43 = icmp ne ptr %42, null
  br i1 %43, label %44, label %61

44:                                               ; preds = %41
  %45 = load ptr, ptr %10, align 8
  %46 = icmp ne ptr %45, null
  br i1 %46, label %47, label %61

47:                                               ; preds = %44
  %48 = load ptr, ptr %9, align 8
  %49 = load ptr, ptr %10, align 8
  %50 = call noundef zeroext i1 @_ZN20RangeCheckEliminator5Bound10is_smallerEPS0_(ptr noundef nonnull align 8 dereferenceable(32) %48, ptr noundef %49)
  br i1 %50, label %51, label %61

51:                                               ; preds = %47
  %52 = load ptr, ptr %9, align 8
  %53 = call noundef ptr @_ZN20RangeCheckEliminator5Bound11lower_instrEv(ptr noundef nonnull align 8 dereferenceable(32) %52)
  %54 = icmp ne ptr %53, null
  br i1 %54, label %61, label %55

55:                                               ; preds = %51
  %56 = load ptr, ptr %9, align 8
  %57 = call noundef i32 @_ZN20RangeCheckEliminator5Bound5lowerEv(ptr noundef nonnull align 8 dereferenceable(32) %56)
  %58 = icmp sge i32 %57, 0
  br i1 %58, label %59, label %61

59:                                               ; preds = %55, %36
  %60 = load ptr, ptr %8, align 8
  call void @_ZN20RangeCheckEliminator18remove_range_checkEP13AccessIndexed(ptr noundef nonnull align 8 dereferenceable(88) %11, ptr noundef %60)
  br label %62

61:                                               ; preds = %55, %51, %47, %44, %41
  br label %62

62:                                               ; preds = %61, %59
  br label %63

63:                                               ; preds = %62, %23, %4
  ret void
}