; Function Attrs: mustprogress nounwind uwtable
define hidden void @_ZN20RangeCheckEliminator22process_access_indexedEP10BlockBeginS1_P13AccessIndexed(ptr noundef nonnull align 8 dereferenceable(88) %0, ptr nocapture readnone %1, ptr nocapture readnone %2, ptr nocapture noundef %3) local_unnamed_addr #0 align 2 {
  %5 = getelementptr inbounds i8, ptr %3, i64 56
  %6 = load i32, ptr %5, align 8
  %7 = and i32 %6, 131072
  %.not26 = icmp eq i32 %7, 0
  br i1 %.not26, label %_ZN20RangeCheckEliminator5Bound10is_smallerEPS0_.exit.thread, label %8

8:                                                ; preds = %4
  %9 = getelementptr inbounds i8, ptr %3, i64 104
  %10 = load ptr, ptr %9, align 8
  %11 = tail call noundef ptr @_ZN20RangeCheckEliminator9get_boundEP11Instruction(ptr noundef nonnull align 8 dereferenceable(88) %0, ptr noundef %10)
  %12 = getelementptr inbounds i8, ptr %11, i64 24
  %13 = load ptr, ptr %12, align 8
  %.not.i = icmp ne ptr %13, null
  %14 = getelementptr inbounds i8, ptr %11, i64 16
  %15 = load i32, ptr %14, align 8
  %16 = icmp ne i32 %15, -2147483648
  %17 = select i1 %.not.i, i1 true, i1 %16
  br i1 %17, label %18, label %_ZN20RangeCheckEliminator5Bound10is_smallerEPS0_.exit.thread

18:                                               ; preds = %8
  %19 = getelementptr inbounds i8, ptr %11, i64 8
  %20 = load ptr, ptr %19, align 8
  %.not.i20 = icmp ne ptr %20, null
  %21 = load i32, ptr %11, align 8
  %22 = icmp ne i32 %21, 2147483647
  %23 = select i1 %.not.i20, i1 true, i1 %22
  br i1 %23, label %24, label %_ZN20RangeCheckEliminator5Bound10is_smallerEPS0_.exit.thread

24:                                               ; preds = %18
  %25 = getelementptr inbounds i8, ptr %3, i64 112
  %26 = load ptr, ptr %25, align 8
  %.not = icmp eq ptr %26, null
  br i1 %.not, label %29, label %27

27:                                               ; preds = %24
  %28 = tail call noundef ptr @_ZN20RangeCheckEliminator9get_boundEP11Instruction(ptr noundef nonnull align 8 dereferenceable(88) %0, ptr noundef nonnull %26)
  br label %33

29:                                               ; preds = %24
  %30 = getelementptr inbounds i8, ptr %3, i64 96
  %31 = load ptr, ptr %30, align 8
  %32 = tail call noundef ptr @_ZN20RangeCheckEliminator9get_boundEP11Instruction(ptr noundef nonnull align 8 dereferenceable(88) %0, ptr noundef %31)
  br label %33

33:                                               ; preds = %27, %29
  %.0 = phi ptr [ %28, %27 ], [ %32, %29 ]
  %34 = getelementptr inbounds i8, ptr %3, i64 96
  %35 = load ptr, ptr %34, align 8
  %36 = load i32, ptr %14, align 8
  %37 = icmp sgt i32 %36, -1
  br i1 %37, label %38, label %_ZN20RangeCheckEliminator14in_array_boundEPNS_5BoundEP11Instruction.exit

38:                                               ; preds = %33
  %39 = load ptr, ptr %12, align 8
  %40 = icmp eq ptr %39, null
  br i1 %40, label %41, label %_ZN20RangeCheckEliminator14in_array_boundEPNS_5BoundEP11Instruction.exit

41:                                               ; preds = %38
  %42 = load i32, ptr %11, align 8
  %43 = icmp slt i32 %42, 0
  br i1 %43, label %44, label %_ZN20RangeCheckEliminator14in_array_boundEPNS_5BoundEP11Instruction.exit

44:                                               ; preds = %41
  %45 = load ptr, ptr %19, align 8
  %.not15.i = icmp eq ptr %45, null
  br i1 %.not15.i, label %_ZN20RangeCheckEliminator14in_array_boundEPNS_5BoundEP11Instruction.exit, label %46

46:                                               ; preds = %44
  %47 = load ptr, ptr %45, align 8
  %48 = getelementptr inbounds i8, ptr %47, i64 72
  %49 = load ptr, ptr %48, align 8
  %50 = tail call noundef ptr %49(ptr noundef nonnull align 8 dereferenceable(96) %45) #13
  %51 = load ptr, ptr %19, align 8
  %52 = icmp eq ptr %51, %35
  br i1 %52, label %_ZN20RangeCheckEliminator14in_array_boundEPNS_5BoundEP11Instruction.exit.thread, label %53

53:                                               ; preds = %46
  %.not16.i = icmp eq ptr %50, null
  br i1 %.not16.i, label %_ZN20RangeCheckEliminator14in_array_boundEPNS_5BoundEP11Instruction.exit, label %54

54:                                               ; preds = %53
  %55 = getelementptr inbounds i8, ptr %50, i64 96
  %56 = load ptr, ptr %55, align 8
  %57 = icmp eq ptr %56, %35
  br i1 %57, label %_ZN20RangeCheckEliminator14in_array_boundEPNS_5BoundEP11Instruction.exit.thread, label %_ZN20RangeCheckEliminator14in_array_boundEPNS_5BoundEP11Instruction.exit

_ZN20RangeCheckEliminator14in_array_boundEPNS_5BoundEP11Instruction.exit: ; preds = %54, %53, %44, %41, %38, %33
  %.not18 = icmp eq ptr %.0, null
  br i1 %.not18, label %_ZN20RangeCheckEliminator5Bound10is_smallerEPS0_.exit.thread, label %58

58:                                               ; preds = %_ZN20RangeCheckEliminator14in_array_boundEPNS_5BoundEP11Instruction.exit
  %59 = getelementptr inbounds i8, ptr %.0, i64 24
  %60 = load ptr, ptr %59, align 8
  %61 = load ptr, ptr %19, align 8
  %.not.i22 = icmp eq ptr %60, %61
  br i1 %.not.i22, label %_ZN20RangeCheckEliminator5Bound10is_smallerEPS0_.exit, label %_ZN20RangeCheckEliminator5Bound10is_smallerEPS0_.exit.thread

_ZN20RangeCheckEliminator5Bound10is_smallerEPS0_.exit: ; preds = %58
  %62 = load i32, ptr %11, align 8
  %63 = getelementptr inbounds i8, ptr %.0, i64 16
  %64 = load i32, ptr %63, align 8
  %65 = icmp slt i32 %62, %64
  br i1 %65, label %66, label %_ZN20RangeCheckEliminator5Bound10is_smallerEPS0_.exit.thread

66:                                               ; preds = %_ZN20RangeCheckEliminator5Bound10is_smallerEPS0_.exit
  %67 = load ptr, ptr %12, align 8
  %.not19 = icmp eq ptr %67, null
  br i1 %.not19, label %68, label %_ZN20RangeCheckEliminator5Bound10is_smallerEPS0_.exit.thread

68:                                               ; preds = %66
  %69 = load i32, ptr %14, align 8
  %70 = icmp sgt i32 %69, -1
  br i1 %70, label %_ZN20RangeCheckEliminator14in_array_boundEPNS_5BoundEP11Instruction.exit.thread, label %_ZN20RangeCheckEliminator5Bound10is_smallerEPS0_.exit.thread

_ZN20RangeCheckEliminator14in_array_boundEPNS_5BoundEP11Instruction.exit.thread: ; preds = %46, %54, %68
  %71 = load i32, ptr %5, align 8
  %72 = and i32 %71, -131073
  store i32 %72, ptr %5, align 8
  store ptr null, ptr %25, align 8
  br label %_ZN20RangeCheckEliminator5Bound10is_smallerEPS0_.exit.thread

_ZN20RangeCheckEliminator5Bound10is_smallerEPS0_.exit.thread: ; preds = %58, %_ZN20RangeCheckEliminator14in_array_boundEPNS_5BoundEP11Instruction.exit.thread, %68, %66, %_ZN20RangeCheckEliminator5Bound10is_smallerEPS0_.exit, %_ZN20RangeCheckEliminator14in_array_boundEPNS_5BoundEP11Instruction.exit, %8, %18, %4
  ret void
}